target datalayout = "e-m:e-p270:32:32-p271:32:32-p272:64:64-i64:64-i128:128-f80:128-n8:16:32:64-S128"
target triple = "x86_64-pc-linux-gnu"

%struct.Vec_Int_t_ = type { i32, i32, ptr }

; Function Attrs: inlinehint nounwind uwtable
define internal i32 @Vec_IntEntry(ptr noundef %0, i32 noundef %1) #3 {
  %3 = alloca ptr, align 8
  %4 = alloca i32, align 4
  store ptr %0, ptr %3, align 8, !tbaa !33
  store i32 %1, ptr %4, align 4, !tbaa !3
  %5 = load ptr, ptr %3, align 8, !tbaa !33
  %6 = getelementptr inbounds nuw %struct.Vec_Int_t_, ptr %5, i32 0, i32 2
  %7 = load ptr, ptr %6, align 8, !tbaa !39
  %8 = load i32, ptr %4, align 4, !tbaa !3
  %9 = sext i32 %8 to i64
  %10 = getelementptr inbounds i32, ptr %7, i64 %9
  %11 = load i32, ptr %10, align 4, !tbaa !3
  ret i32 %11
}

; Function Attrs: inlinehint nounwind uwtable
define internal i32 @Vec_IntSize(ptr noundef %0) #3 {
  %2 = alloca ptr, align 8
  store ptr %0, ptr %2, align 8, !tbaa !33
  %3 = load ptr, ptr %2, align 8, !tbaa !33
  %4 = getelementptr inbounds nuw %struct.Vec_Int_t_, ptr %3, i32 0, i32 1
  %5 = load i32, ptr %4, align 4, !tbaa !37
  ret i32 %5
}

; Function Attrs: nounwind uwtable
define i32 @Abc_BddCountNodesArray(ptr noundef %0, ptr noundef %1) #0 {
  %3 = alloca ptr, align 8
  %4 = alloca ptr, align 8
  %5 = alloca i32, align 4
  %6 = alloca i32, align 4
  %7 = alloca i32, align 4
  store ptr %0, ptr %3, align 8, !tbaa !7
  store ptr %1, ptr %4, align 8, !tbaa !33
  call void @llvm.lifetime.start.p0(i64 4, ptr %5) #9
  call void @llvm.lifetime.start.p0(i64 4, ptr %6) #9
  call void @llvm.lifetime.start.p0(i64 4, ptr %7) #9
  store i32 0, ptr %7, align 4, !tbaa !3
  store i32 0, ptr %5, align 4, !tbaa !3
  br label %8

8:                                                ; preds = %25, %2
  %9 = load i32, ptr %5, align 4, !tbaa !3
  %10 = load ptr, ptr %4, align 8, !tbaa !33
  %11 = call i32 @Vec_IntSize(ptr noundef %10)
  %12 = icmp slt i32 %9, %11
  br i1 %12, label %13, label %17

13:                                               ; preds = %8
  %14 = load ptr, ptr %4, align 8, !tbaa !33
  %15 = load i32, ptr %5, align 4, !tbaa !3
  %16 = call i32 @Vec_IntEntry(ptr noundef %14, i32 noundef %15)
  store i32 %16, ptr %6, align 4, !tbaa !3
  br label %17

17:                                               ; preds = %13, %8
  %18 = phi i1 [ false, %8 ], [ true, %13 ]
  br i1 %18, label %19, label %28

19:                                               ; preds = %17
  %20 = load ptr, ptr %3, align 8, !tbaa !7
  %21 = load i32, ptr %6, align 4, !tbaa !3
  %22 = call i32 @Abc_BddCount_rec(ptr noundef %20, i32 noundef %21)
  %23 = load i32, ptr %7, align 4, !tbaa !3
  %24 = add nsw i32 %23, %22
  store i32 %24, ptr %7, align 4, !tbaa !3
  br label %25

25:                                               ; preds = %19
  %26 = load i32, ptr %5, align 4, !tbaa !3
  %27 = add nsw i32 %26, 1
  store i32 %27, ptr %5, align 4, !tbaa !3
  br label %8, !llvm.loop !35

28:                                               ; preds = %17
  store i32 0, ptr %5, align 4, !tbaa !3
  br label %29

29:                                               ; preds = %43, %28
  %30 = load i32, ptr %5, align 4, !tbaa !3
  %31 = load ptr, ptr %4, align 8, !tbaa !33
  %32 = call i32 @Vec_IntSize(ptr noundef %31)
  %33 = icmp slt i32 %30, %32
  br i1 %33, label %34, label %38

34:                                               ; preds = %29
  %35 = load ptr, ptr %4, align 8, !tbaa !33
  %36 = load i32, ptr %5, align 4, !tbaa !3
  %37 = call i32 @Vec_IntEntry(ptr noundef %35, i32 noundef %36)
  store i32 %37, ptr %6, align 4, !tbaa !3
  br label %38

38:                                               ; preds = %34, %29
  %39 = phi i1 [ false, %29 ], [ true, %34 ]
  br i1 %39, label %40, label %46

40:                                               ; preds = %38
  %41 = load ptr, ptr %3, align 8, !tbaa !7
  %42 = load i32, ptr %6, align 4, !tbaa !3
  call void @Abc_BddUnmark_rec(ptr noundef %41, i32 noundef %42)
  br label %43

43:                                               ; preds = %40
  %44 = load i32, ptr %5, align 4, !tbaa !3
  %45 = add nsw i32 %44, 1
  store i32 %45, ptr %5, align 4, !tbaa !3
  br label %29, !llvm.loop !36

46:                                               ; preds = %38
  %47 = load i32, ptr %7, align 4, !tbaa !3
  call void @llvm.lifetime.end.p0(i64 4, ptr %7) #9
  call void @llvm.lifetime.end.p0(i64 4, ptr %6) #9
  call void @llvm.lifetime.end.p0(i64 4, ptr %5) #9
  ret i32 %47
}