; Function Attrs: nofree nosync nounwind memory(readwrite, inaccessiblemem: none) uwtable
define i32 @Abc_BddCountNodesArray(ptr noundef readonly captures(none) %0, ptr noundef readonly captures(none) %1) local_unnamed_addr #5 {
  %3 = getelementptr i8, ptr %1, i64 4
  %.val21 = load i32, ptr %3, align 4, !tbaa !32
  %4 = icmp sgt i32 %.val21, 0
  br i1 %4, label %.lr.ph, label %.critedge2

.lr.ph:                                           ; preds = %2
  %5 = getelementptr i8, ptr %1, i64 8
  br label %8

.critedge.preheader:                              ; preds = %8
  %6 = icmp sgt i32 %.val, 0
  br i1 %6, label %.lr.ph26, label %.critedge2

.lr.ph26:                                         ; preds = %.critedge.preheader
  %7 = getelementptr i8, ptr %1, i64 8
  br label %.critedge

8:                                                ; preds = %.lr.ph, %8
  %indvars.iv = phi i64 [ 0, %.lr.ph ], [ %indvars.iv.next, %8 ]
  %.023 = phi i32 [ 0, %.lr.ph ], [ %12, %8 ]
  %.val19 = load ptr, ptr %5, align 8, !tbaa !34
  %9 = getelementptr inbounds nuw i32, ptr %.val19, i64 %indvars.iv
  %10 = load i32, ptr %9, align 4, !tbaa !23
  %11 = tail call i32 @Abc_BddCount_rec(ptr noundef %0, i32 noundef %10)
  %12 = add nsw i32 %11, %.023
  %indvars.iv.next = add nuw nsw i64 %indvars.iv, 1
  %.val = load i32, ptr %3, align 4, !tbaa !32
  %13 = sext i32 %.val to i64
  %14 = icmp slt i64 %indvars.iv.next, %13
  br i1 %14, label %8, label %.critedge.preheader, !llvm.loop !35

.critedge:                                        ; preds = %.lr.ph26, %.critedge
  %indvars.iv28 = phi i64 [ 0, %.lr.ph26 ], [ %indvars.iv.next29, %.critedge ]
  %.val20 = load ptr, ptr %7, align 8, !tbaa !34
  %15 = getelementptr inbounds nuw i32, ptr %.val20, i64 %indvars.iv28
  %16 = load i32, ptr %15, align 4, !tbaa !23
  tail call void @Abc_BddUnmark_rec(ptr noundef %0, i32 noundef %16)
  %indvars.iv.next29 = add nuw nsw i64 %indvars.iv28, 1
  %.val18 = load i32, ptr %3, align 4, !tbaa !32
  %17 = sext i32 %.val18 to i64
  %18 = icmp slt i64 %indvars.iv.next29, %17
  br i1 %18, label %.critedge, label %.critedge2, !llvm.loop !36

.critedge2:                                       ; preds = %.critedge, %2, %.critedge.preheader
  %.0.lcssa34 = phi i32 [ %12, %.critedge.preheader ], [ 0, %2 ], [ %12, %.critedge ]
  ret i32 %.0.lcssa34
}